; Function Attrs: nounwind uwtable
define ptr @l_Lean_Json_getObjValAs_x3f___at___private_Lean_Data_Lsp_Internal_0__Lean_Lsp_fromJsonLeanIleanInfoParams____x40_Lean_Data_Lsp_Internal___hyg_2105____spec__1(ptr noundef %0, ptr noundef %1) local_unnamed_addr #1 {
  %3 = tail call ptr @l_Lean_Json_getObjValD(ptr noundef %0, ptr noundef %1) #8
  %4 = tail call ptr @l_Lean_Json_getObj_x3f(ptr noundef %3) #8
  %5 = ptrtoint ptr %4 to i64
  %6 = and i64 %5, 1
  %.not.i23 = icmp eq i64 %6, 0
  br i1 %.not.i23, label %10, label %7

7:                                                ; preds = %2
  %8 = lshr i64 %5, 1
  %9 = trunc i64 %8 to i32
  br label %lean_obj_tag.exit

10:                                               ; preds = %2
  %11 = getelementptr i8, ptr %4, i64 4
  %.val.i = load i32, ptr %11, align 4
  %12 = lshr i32 %.val.i, 24
  br label %lean_obj_tag.exit

lean_obj_tag.exit:                                ; preds = %7, %10
  %.0.i = phi i32 [ %9, %7 ], [ %12, %10 ]
  %13 = icmp eq i32 %.0.i, 0
  br i1 %13, label %14, label %39

14:                                               ; preds = %lean_obj_tag.exit
  %.val = load i32, ptr %4, align 4, !tbaa !8
  %15 = icmp eq i32 %.val, 1
  br i1 %15, label %58, label %16

16:                                               ; preds = %14
  %17 = getelementptr inbounds nuw i8, ptr %4, i64 8
  %18 = load ptr, ptr %17, align 8, !tbaa !4
  %19 = ptrtoint ptr %18 to i64
  %20 = and i64 %19, 1
  %.not30 = icmp eq i64 %20, 0
  br i1 %.not30, label %21, label %lean_inc.exit20

21:                                               ; preds = %16
  %.val.i24 = load i32, ptr %18, align 4, !tbaa !8
  %22 = icmp sgt i32 %.val.i24, 0
  br i1 %22, label %23, label %25, !prof !11

23:                                               ; preds = %21
  %24 = add nuw i32 %.val.i24, 1
  store i32 %24, ptr %18, align 4, !tbaa !8
  br label %lean_inc.exit20

25:                                               ; preds = %21
  %.not.i25 = icmp eq i32 %.val.i24, 0
  br i1 %.not.i25, label %lean_inc.exit20, label %26

26:                                               ; preds = %25
  tail call void @lean_inc_ref_cold(ptr noundef nonnull %18) #8
  br label %lean_inc.exit20

lean_inc.exit20:                                  ; preds = %26, %25, %23, %16
  br i1 %.not.i23, label %27, label %lean_dec.exit19

27:                                               ; preds = %lean_inc.exit20
  %28 = load i32, ptr %4, align 4, !tbaa !8
  %29 = icmp sgt i32 %28, 1
  br i1 %29, label %30, label %32, !prof !11

30:                                               ; preds = %27
  %31 = add nsw i32 %28, -1
  store i32 %31, ptr %4, align 4, !tbaa !8
  br label %lean_dec.exit19

32:                                               ; preds = %27
  %.not.i = icmp eq i32 %28, 0
  br i1 %.not.i, label %lean_dec.exit19, label %33

33:                                               ; preds = %32
  tail call void @lean_dec_ref_cold(ptr noundef nonnull %4) #8
  br label %lean_dec.exit19

lean_dec.exit19:                                  ; preds = %33, %32, %30, %lean_inc.exit20
  tail call void @lean_inc_heartbeat() #8
  %34 = tail call noalias ptr @mi_malloc_small(i64 noundef 16) #8
  %35 = icmp eq ptr %34, null
  br i1 %35, label %36, label %lean_alloc_ctor.exit

36:                                               ; preds = %lean_dec.exit19
  tail call void @lean_internal_panic_out_of_memory() #9
  unreachable

lean_alloc_ctor.exit:                             ; preds = %lean_dec.exit19
  %37 = getelementptr inbounds nuw i8, ptr %34, i64 4
  store i32 1, ptr %34, align 4, !tbaa !8
  store i32 65552, ptr %37, align 4
  %38 = getelementptr inbounds nuw i8, ptr %34, i64 8
  store ptr %18, ptr %38, align 8, !tbaa !4
  br label %58

39:                                               ; preds = %lean_obj_tag.exit
  %40 = getelementptr inbounds nuw i8, ptr %4, i64 8
  %41 = load ptr, ptr %40, align 8, !tbaa !4
  %42 = ptrtoint ptr %41 to i64
  %43 = and i64 %42, 1
  %.not = icmp eq i64 %43, 0
  br i1 %.not, label %44, label %lean_inc.exit

44:                                               ; preds = %39
  %.val.i26 = load i32, ptr %41, align 4, !tbaa !8
  %45 = icmp sgt i32 %.val.i26, 0
  br i1 %45, label %46, label %48, !prof !11

46:                                               ; preds = %44
  %47 = add nuw i32 %.val.i26, 1
  store i32 %47, ptr %41, align 4, !tbaa !8
  br label %lean_inc.exit

48:                                               ; preds = %44
  %.not.i27 = icmp eq i32 %.val.i26, 0
  br i1 %.not.i27, label %lean_inc.exit, label %49

49:                                               ; preds = %48
  tail call void @lean_inc_ref_cold(ptr noundef nonnull %41) #8
  br label %lean_inc.exit

lean_inc.exit:                                    ; preds = %49, %48, %46, %39
  br i1 %.not.i23, label %50, label %lean_dec.exit

50:                                               ; preds = %lean_inc.exit
  %51 = load i32, ptr %4, align 4, !tbaa !8
  %52 = icmp sgt i32 %51, 1
  br i1 %52, label %53, label %55, !prof !11

53:                                               ; preds = %50
  %54 = add nsw i32 %51, -1
  store i32 %54, ptr %4, align 4, !tbaa !8
  br label %lean_dec.exit

55:                                               ; preds = %50
  %.not.i21 = icmp eq i32 %51, 0
  br i1 %.not.i21, label %lean_dec.exit, label %56

56:                                               ; preds = %55
  tail call void @lean_dec_ref_cold(ptr noundef nonnull %4) #8
  br label %lean_dec.exit

lean_dec.exit:                                    ; preds = %56, %55, %53, %lean_inc.exit
  %57 = tail call ptr @l_Lean_RBNode_foldM___at_Lean_Lsp_instFromJsonModuleRefs___spec__2(ptr noundef nonnull inttoptr (i64 3 to ptr), ptr noundef %41)
  br label %58

58:                                               ; preds = %lean_alloc_ctor.exit, %14, %lean_dec.exit
  %.1 = phi ptr [ %57, %lean_dec.exit ], [ %34, %lean_alloc_ctor.exit ], [ %4, %14 ]
  ret ptr %.1
}